target datalayout = "e-m:e-p270:32:32-p271:32:32-p272:64:64-i64:64-i128:128-f80:128-n8:16:32:64-S128"
target triple = "x86_64-pc-linux-gnu"

%"class.gmx::AnalysisDataHandle" = type { ptr }
%"class.gmx::internal::AnalysisDataHandleImpl" = type { ptr, ptr }
%class.anon.65 = type { i8 }
%class.anon.67 = type { i8 }
%class.anon.69 = type { i8 }

@.str.2 = private unnamed_addr constant [135 x i8] c"generated/home/dtcxzyw/WorkSpace/Projects/compilers/llvm-opt-benchmark/bench/gromacs/gromacs/src/gromacs/analysisdata/analysisdata.cpp\00", align 1
@.str.9 = private unnamed_addr constant [17 x i8] c"impl_ != nullptr\00", align 1
@.str.10 = private unnamed_addr constant [25 x i8] c"Invalid data handle used\00", align 1
@.str.13 = private unnamed_addr constant [32 x i8] c"impl_->currentFrame_ != nullptr\00", align 1
@"__PRETTY_FUNCTION__._ZZN3gmx18AnalysisDataHandle14finishPointSetEvENK3$_0clEv" = private unnamed_addr constant [86 x i8] c"auto gmx::AnalysisDataHandle::finishPointSet()::(anonymous class)::operator()() const\00", align 1
@.str.17 = private unnamed_addr constant [28 x i8] c"impl_->data_.isMultipoint()\00", align 1
@.str.18 = private unnamed_addr constant [48 x i8] c"finishPointSet() called for non-multipoint data\00", align 1
@.str.19 = private unnamed_addr constant [53 x i8] c"finishPointSet() called without calling startFrame()\00", align 1

; Function Attrs: inlinehint mustprogress uwtable
define internal void @"_ZZN3gmx18AnalysisDataHandle14finishPointSetEvENK3$_2clEv"(ptr noundef nonnull align 1 dereferenceable(1) %0) #4 align 2 {
  %2 = alloca ptr, align 8
  store ptr %0, ptr %2, align 8, !tbaa !78
  call void @_ZN3gmx8internal13assertHandlerEPKcS2_S2_S2_i(ptr noundef @.str.13, ptr noundef @.str.19, ptr noundef @"__PRETTY_FUNCTION__._ZZN3gmx18AnalysisDataHandle14finishPointSetEvENK3$_0clEv", ptr noundef @.str.2, i32 noundef 272) #17
  unreachable
}

; Function Attrs: inlinehint mustprogress uwtable
define internal void @"_ZZN3gmx18AnalysisDataHandle14finishPointSetEvENK3$_1clEv"(ptr noundef nonnull align 1 dereferenceable(1) %0) #4 align 2 {
  %2 = alloca ptr, align 8
  store ptr %0, ptr %2, align 8, !tbaa !78
  call void @_ZN3gmx8internal13assertHandlerEPKcS2_S2_S2_i(ptr noundef @.str.17, ptr noundef @.str.18, ptr noundef @"__PRETTY_FUNCTION__._ZZN3gmx18AnalysisDataHandle14finishPointSetEvENK3$_0clEv", ptr noundef @.str.2, i32 noundef 270) #17
  unreachable
}

; Function Attrs: inlinehint mustprogress uwtable
define internal void @"_ZZN3gmx18AnalysisDataHandle14finishPointSetEvENK3$_0clEv"(ptr noundef nonnull align 1 dereferenceable(1) %0) #4 align 2 {
  %2 = alloca ptr, align 8
  store ptr %0, ptr %2, align 8, !tbaa !78
  call void @_ZN3gmx8internal13assertHandlerEPKcS2_S2_S2_i(ptr noundef @.str.9, ptr noundef @.str.10, ptr noundef @"__PRETTY_FUNCTION__._ZZN3gmx18AnalysisDataHandle14finishPointSetEvENK3$_0clEv", ptr noundef @.str.2, i32 noundef 268) #17
  unreachable
}

; Function Attrs: mustprogress uwtable
define void @_ZN3gmx18AnalysisDataHandle14finishPointSetEv(ptr noundef nonnull align 8 dereferenceable(8) %0) #1 align 2 {
  %2 = alloca ptr, align 8
  %3 = alloca %class.anon.65, align 1
  %4 = alloca %class.anon.67, align 1
  %5 = alloca %class.anon.69, align 1
  store ptr %0, ptr %2, align 8, !tbaa !115
  %6 = load ptr, ptr %2, align 8
  %7 = getelementptr inbounds nuw %"class.gmx::AnalysisDataHandle", ptr %6, i32 0, i32 0
  %8 = load ptr, ptr %7, align 8, !tbaa !111
  %9 = icmp ne ptr %8, null
  call void @llvm.lifetime.start.p0(i64 1, ptr %3) #13
  br i1 %9, label %10, label %11

10:                                               ; preds = %1
  br label %12

11:                                               ; preds = %1
  call void @"_ZZN3gmx18AnalysisDataHandle14finishPointSetEvENK3$_0clEv"(ptr noundef nonnull align 1 dereferenceable(1) %3)
  br label %12

12:                                               ; preds = %11, %10
  call void @llvm.lifetime.end.p0(i64 1, ptr %3) #13
  %13 = getelementptr inbounds nuw %"class.gmx::AnalysisDataHandle", ptr %6, i32 0, i32 0
  %14 = load ptr, ptr %13, align 8, !tbaa !111
  %15 = getelementptr inbounds nuw %"class.gmx::internal::AnalysisDataHandleImpl", ptr %14, i32 0, i32 0
  %16 = load ptr, ptr %15, align 8, !tbaa !119
  %17 = call noundef zeroext i1 @_ZNK3gmx20AbstractAnalysisData12isMultipointEv(ptr noundef nonnull align 8 dereferenceable(16) %16)
  call void @llvm.lifetime.start.p0(i64 1, ptr %4) #13
  br i1 %17, label %18, label %19

18:                                               ; preds = %12
  br label %20

19:                                               ; preds = %12
  call void @"_ZZN3gmx18AnalysisDataHandle14finishPointSetEvENK3$_1clEv"(ptr noundef nonnull align 1 dereferenceable(1) %4)
  br label %20

20:                                               ; preds = %19, %18
  call void @llvm.lifetime.end.p0(i64 1, ptr %4) #13
  %21 = getelementptr inbounds nuw %"class.gmx::AnalysisDataHandle", ptr %6, i32 0, i32 0
  %22 = load ptr, ptr %21, align 8, !tbaa !111
  %23 = getelementptr inbounds nuw %"class.gmx::internal::AnalysisDataHandleImpl", ptr %22, i32 0, i32 1
  %24 = load ptr, ptr %23, align 8, !tbaa !93
  %25 = icmp ne ptr %24, null
  call void @llvm.lifetime.start.p0(i64 1, ptr %5) #13
  br i1 %25, label %26, label %27

26:                                               ; preds = %20
  br label %28

27:                                               ; preds = %20
  call void @"_ZZN3gmx18AnalysisDataHandle14finishPointSetEvENK3$_2clEv"(ptr noundef nonnull align 1 dereferenceable(1) %5)
  br label %28

28:                                               ; preds = %27, %26
  call void @llvm.lifetime.end.p0(i64 1, ptr %5) #13
  %29 = getelementptr inbounds nuw %"class.gmx::AnalysisDataHandle", ptr %6, i32 0, i32 0
  %30 = load ptr, ptr %29, align 8, !tbaa !111
  %31 = getelementptr inbounds nuw %"class.gmx::internal::AnalysisDataHandleImpl", ptr %30, i32 0, i32 1
  %32 = load ptr, ptr %31, align 8, !tbaa !93
  call void @_ZN3gmx24AnalysisDataStorageFrame14finishPointSetEv(ptr noundef nonnull align 8 dereferenceable(45) %32)
  ret void
}