; Function Attrs: mustprogress uwtable
define void @_ZN3gmx18AnalysisDataHandle14finishPointSetEv(ptr noundef nonnull readonly align 8 captures(none) dereferenceable(8) %0) local_unnamed_addr #1 align 2 {
  %2 = load ptr, ptr %0, align 8, !tbaa !37
  %.not = icmp eq ptr %2, null
  br i1 %.not, label %3, label %4

3:                                                ; preds = %1
  tail call void @_ZN3gmx8internal13assertHandlerEPKcS2_S2_S2_i(ptr noundef nonnull @.str.9, ptr noundef nonnull @.str.10, ptr noundef nonnull @"__PRETTY_FUNCTION__._ZZN3gmx18AnalysisDataHandle14finishPointSetEvENK3$_0clEv", ptr noundef nonnull @.str.2, i32 noundef 268) #15
  unreachable

4:                                                ; preds = %1
  %5 = load ptr, ptr %2, align 8, !tbaa !39
  %6 = tail call noundef zeroext i1 @_ZNK3gmx20AbstractAnalysisData12isMultipointEv(ptr noundef nonnull align 8 dereferenceable(16) %5)
  br i1 %6, label %8, label %7

7:                                                ; preds = %4
  tail call void @_ZN3gmx8internal13assertHandlerEPKcS2_S2_S2_i(ptr noundef nonnull @.str.17, ptr noundef nonnull @.str.18, ptr noundef nonnull @"__PRETTY_FUNCTION__._ZZN3gmx18AnalysisDataHandle14finishPointSetEvENK3$_0clEv", ptr noundef nonnull @.str.2, i32 noundef 270) #15
  unreachable

8:                                                ; preds = %4
  %9 = load ptr, ptr %0, align 8, !tbaa !37
  %10 = getelementptr inbounds nuw i8, ptr %9, i64 8
  %11 = load ptr, ptr %10, align 8, !tbaa !26
  %.not1 = icmp eq ptr %11, null
  br i1 %.not1, label %12, label %13

12:                                               ; preds = %8
  tail call void @_ZN3gmx8internal13assertHandlerEPKcS2_S2_S2_i(ptr noundef nonnull @.str.13, ptr noundef nonnull @.str.19, ptr noundef nonnull @"__PRETTY_FUNCTION__._ZZN3gmx18AnalysisDataHandle14finishPointSetEvENK3$_0clEv", ptr noundef nonnull @.str.2, i32 noundef 272) #15
  unreachable

13:                                               ; preds = %8
  tail call void @_ZN3gmx24AnalysisDataStorageFrame14finishPointSetEv(ptr noundef nonnull align 8 dereferenceable(45) %11)
  ret void
}